(iT_Rax_Data
TraxTemperatureSettings
p0
(dp1
S'us_calib_file_name'
p2
S'D:\\Programming\\VS Projects\\T-Rax\\T-Rax\\unittests/unittest files/up_15.SPE'
p3
sS'us_modus'
p4
I1
sS'ds_modus'
p5
I1
sS'img_dimension'
p6
(I1300
I100
tp7
sS'ds_temperature'
p8
I2000
sS'ds_calib_file_name'
p9
S'D:\\Programming\\VS Projects\\T-Rax\\T-Rax\\unittests/unittest files/dn_15.SPE'
p10
sS'ds_etalon_file_name'
p11
S'15A_lamp.txt'
p12
sS'us_temperature'
p13
I2000
sS'ds_roi'
p14
(lp15
cnumpy.core.multiarray
scalar
p16
(cnumpy
dtype
p17
(S'f8'
p18
I0
I1
tp19
Rp20
(I3
S'<'
p21
NNNI-1
I-1
I0
tp22
bS'\x00\x00\x00\x00\x00Pt@'
p23
tp24
Rp25
ag16
(g20
S'\x00\x00\x00\x00\x00p\x8e@'
p26
tp27
Rp28
ag16
(g20
S'\x00\x00\x00\x00\x00\xc0S@'
p29
tp30
Rp31
ag16
(g20
S'\x00\x00\x00\x00\x00@V@'
p32
tp33
Rp34
asS'us_roi'
p35
(lp36
g16
(g20
S'\x00\x00\x00\x00\x00Pt@'
p37
tp38
Rp39
ag16
(g20
S'\x00\x00\x00\x00\x00p\x8e@'
p40
tp41
Rp42
ag16
(g20
S'\x00\x00\x00\x00\x00\x00$@'
p43
tp44
Rp45
ag16
(g20
S'\x00\x00\x00\x00\x00\x004@'
p46
tp47
Rp48
asS'us_etalon_file_name'
p49
g12
sb.