(iT_Rax_Data
TraxTemperatureSettings
p0
(dp1
S'us_calib_file_name'
p2
S'Select File...'
p3
sS'img_dimension'
p4
(I1300
I100
tp5
sS'ds_calib_file_name'
p6
S'Select File...'
p7
sS'ds_etalon_file_name'
p8
S'Select File...'
p9
sS'ds_calibration_temperature'
p10
I2000
sS'us_calibration_temperature'
p11
I2000
sS'ds_etalon_spectrum'
p12
(lp13
sS'us_etalon_spectrum'
p14
(lp15
sS'ds_roi'
p16
(lp17
cnumpy.core.multiarray
scalar
p18
(cnumpy
dtype
p19
(S'f8'
p20
I0
I1
tp21
Rp22
(I3
S'<'
p23
NNNI-1
I-1
I0
tp24
bS'\x00\x00\x00\x00\x00Pt@'
p25
tp26
Rp27
ag18
(g22
S'\x00\x00\x00\x00\x00p\x8e@'
p28
tp29
Rp30
ag18
(g22
S'\x00\x00\x00\x00\x00\xc0S@'
p31
tp32
Rp33
ag18
(g22
S'\x00\x00\x00\x00\x00@V@'
p34
tp35
Rp36
asS'us_calibration_modus'
p37
I0
sS'us_roi'
p38
(lp39
g18
(g22
S'\x00\x00\x00\x00\x00Pt@'
p40
tp41
Rp42
ag18
(g22
S'\x00\x00\x00\x00\x00p\x8e@'
p43
tp44
Rp45
ag18
(g22
S'\x00\x00\x00\x00\x00\x00$@'
p46
tp47
Rp48
ag18
(g22
S'\x00\x00\x00\x00\x00\x004@'
p49
tp50
Rp51
asS'us_etalon_file_name'
p52
g9
sS'ds_calibration_modus'
p53
I0
sb.